; Function Attrs: mustprogress uwtable
define hidden noundef zeroext i1 @_ZN4lean12type_checker7is_propERKNS_4exprE(ptr noundef nonnull align 8 dereferenceable(48) %0, ptr noundef nonnull align 8 dereferenceable(8) %1) local_unnamed_addr #0 align 2 personality ptr @__gxx_personality_v0 {
  %3 = alloca %"class.lean::expr", align 8
  %4 = alloca %"class.lean::expr", align 8
  %5 = alloca %"class.lean::expr", align 8
  call void @llvm.lifetime.start.p0(i64 8, ptr nonnull %3) #19
  call void @llvm.lifetime.start.p0(i64 8, ptr nonnull %4) #19
  call void @_ZN4lean12type_checker15infer_type_coreERKNS_4exprEb(ptr dead_on_unwind nonnull writable sret(%"class.lean::expr") align 8 %4, ptr noundef nonnull align 8 dereferenceable(48) %0, ptr noundef nonnull align 8 dereferenceable(8) %1, i1 noundef zeroext true)
  invoke void @_ZN4lean12type_checker4whnfERKNS_4exprE(ptr dead_on_unwind nonnull writable sret(%"class.lean::expr") align 8 %3, ptr noundef nonnull align 8 dereferenceable(48) %0, ptr noundef nonnull align 8 dereferenceable(8) %4)
          to label %6 unwind label %48

6:                                                ; preds = %2
  call void @llvm.lifetime.start.p0(i64 8, ptr nonnull %5) #19
  invoke void @_ZN4lean7mk_PropEv(ptr dead_on_unwind nonnull writable sret(%"class.lean::expr") align 8 %5)
          to label %7 unwind label %50

7:                                                ; preds = %6
  %8 = invoke noundef zeroext i1 @_ZN4lean8is_equalERKNS_4exprES2_(ptr noundef nonnull align 8 dereferenceable(8) %3, ptr noundef nonnull align 8 dereferenceable(8) %5)
          to label %_ZN4leaneqERKNS_4exprES2_.exit unwind label %52

_ZN4leaneqERKNS_4exprES2_.exit:                   ; preds = %7
  %9 = load ptr, ptr %5, align 8, !tbaa !3
  %10 = ptrtoint ptr %9 to i64
  %11 = and i64 %10, 1
  %.not.i.i = icmp eq i64 %11, 0
  br i1 %.not.i.i, label %12, label %_ZN4lean10object_refD2Ev.exit

12:                                               ; preds = %_ZN4leaneqERKNS_4exprES2_.exit
  %13 = load i32, ptr %9, align 4, !tbaa !8
  %14 = icmp sgt i32 %13, 1
  br i1 %14, label %15, label %17, !prof !11

15:                                               ; preds = %12
  %16 = add nsw i32 %13, -1
  store i32 %16, ptr %9, align 4, !tbaa !8
  br label %_ZN4lean10object_refD2Ev.exit

17:                                               ; preds = %12
  %.not.i.i.i.i = icmp eq i32 %13, 0
  br i1 %.not.i.i.i.i, label %_ZN4lean10object_refD2Ev.exit, label %18

18:                                               ; preds = %17
  invoke void @lean_dec_ref_cold(ptr noundef nonnull %9)
          to label %_ZN4lean10object_refD2Ev.exit unwind label %19

19:                                               ; preds = %18
  %20 = landingpad { ptr, i32 }
          catch ptr null
  %21 = extractvalue { ptr, i32 } %20, 0
  call void @__clang_call_terminate(ptr %21) #21
  unreachable

_ZN4lean10object_refD2Ev.exit:                    ; preds = %_ZN4leaneqERKNS_4exprES2_.exit, %15, %17, %18
  call void @llvm.lifetime.end.p0(i64 8, ptr nonnull %5) #19
  %22 = load ptr, ptr %3, align 8, !tbaa !3
  %23 = ptrtoint ptr %22 to i64
  %24 = and i64 %23, 1
  %.not.i.i7 = icmp eq i64 %24, 0
  br i1 %.not.i.i7, label %25, label %_ZN4lean10object_refD2Ev.exit9

25:                                               ; preds = %_ZN4lean10object_refD2Ev.exit
  %26 = load i32, ptr %22, align 4, !tbaa !8
  %27 = icmp sgt i32 %26, 1
  br i1 %27, label %28, label %30, !prof !11

28:                                               ; preds = %25
  %29 = add nsw i32 %26, -1
  store i32 %29, ptr %22, align 4, !tbaa !8
  br label %_ZN4lean10object_refD2Ev.exit9

30:                                               ; preds = %25
  %.not.i.i.i.i8 = icmp eq i32 %26, 0
  br i1 %.not.i.i.i.i8, label %_ZN4lean10object_refD2Ev.exit9, label %31

31:                                               ; preds = %30
  invoke void @lean_dec_ref_cold(ptr noundef nonnull %22)
          to label %_ZN4lean10object_refD2Ev.exit9 unwind label %32

32:                                               ; preds = %31
  %33 = landingpad { ptr, i32 }
          catch ptr null
  %34 = extractvalue { ptr, i32 } %33, 0
  call void @__clang_call_terminate(ptr %34) #21
  unreachable

_ZN4lean10object_refD2Ev.exit9:                   ; preds = %_ZN4lean10object_refD2Ev.exit, %28, %30, %31
  %35 = load ptr, ptr %4, align 8, !tbaa !3
  %36 = ptrtoint ptr %35 to i64
  %37 = and i64 %36, 1
  %.not.i.i10 = icmp eq i64 %37, 0
  br i1 %.not.i.i10, label %38, label %_ZN4lean10object_refD2Ev.exit12

38:                                               ; preds = %_ZN4lean10object_refD2Ev.exit9
  %39 = load i32, ptr %35, align 4, !tbaa !8
  %40 = icmp sgt i32 %39, 1
  br i1 %40, label %41, label %43, !prof !11

41:                                               ; preds = %38
  %42 = add nsw i32 %39, -1
  store i32 %42, ptr %35, align 4, !tbaa !8
  br label %_ZN4lean10object_refD2Ev.exit12

43:                                               ; preds = %38
  %.not.i.i.i.i11 = icmp eq i32 %39, 0
  br i1 %.not.i.i.i.i11, label %_ZN4lean10object_refD2Ev.exit12, label %44

44:                                               ; preds = %43
  invoke void @lean_dec_ref_cold(ptr noundef nonnull %35)
          to label %_ZN4lean10object_refD2Ev.exit12 unwind label %45

45:                                               ; preds = %44
  %46 = landingpad { ptr, i32 }
          catch ptr null
  %47 = extractvalue { ptr, i32 } %46, 0
  call void @__clang_call_terminate(ptr %47) #21
  unreachable

_ZN4lean10object_refD2Ev.exit12:                  ; preds = %_ZN4lean10object_refD2Ev.exit9, %41, %43, %44
  call void @llvm.lifetime.end.p0(i64 8, ptr nonnull %4) #19
  call void @llvm.lifetime.end.p0(i64 8, ptr nonnull %3) #19
  ret i1 %8

48:                                               ; preds = %2
  %49 = landingpad { ptr, i32 }
          cleanup
  br label %55

50:                                               ; preds = %6
  %51 = landingpad { ptr, i32 }
          cleanup
  br label %54

52:                                               ; preds = %7
  %53 = landingpad { ptr, i32 }
          cleanup
  call void @_ZN4lean10object_refD2Ev(ptr noundef nonnull align 8 dereferenceable(8) %5) #19
  br label %54

54:                                               ; preds = %52, %50
  %.pn = phi { ptr, i32 } [ %53, %52 ], [ %51, %50 ]
  call void @llvm.lifetime.end.p0(i64 8, ptr nonnull %5) #19
  call void @_ZN4lean10object_refD2Ev(ptr noundef nonnull align 8 dereferenceable(8) %3) #19
  br label %55

55:                                               ; preds = %54, %48
  %.pn.pn = phi { ptr, i32 } [ %.pn, %54 ], [ %49, %48 ]
  call void @_ZN4lean10object_refD2Ev(ptr noundef nonnull align 8 dereferenceable(8) %4) #19
  call void @llvm.lifetime.end.p0(i64 8, ptr nonnull %4) #19
  call void @llvm.lifetime.end.p0(i64 8, ptr nonnull %3) #19
  resume { ptr, i32 } %.pn.pn
}